; Function Attrs: mustprogress nounwind uwtable
define hidden void @_ZN6hermes2vm8JSObject20initializeLazyObjectERNS0_7RuntimeENS0_6HandleIS1_EE(ptr noundef nonnull align 8 dereferenceable(9832) %runtime, ptr %lazyObject.coerce) local_unnamed_addr #1 align 2 {
entry:
  %agg.tmp.sroa.0.0.copyload.i.i = load i64, ptr %lazyObject.coerce, align 8
  %and.i.i.i.i.i = and i64 %agg.tmp.sroa.0.0.copyload.i.i, 281474976710655
  %0 = inttoptr i64 %and.i.i.i.i.i to ptr
  %flags_ = getelementptr inbounds nuw i8, ptr %0, i64 4
  %bf.load = load i32, ptr %flags_, align 4
  %bf.clear = and i32 %bf.load, -65
  store i32 %bf.clear, ptr %flags_, align 4
  tail call void @_ZN6hermes2vm8Callable20defineLazyPropertiesENS0_6HandleIS1_EERNS0_7RuntimeE(ptr nonnull %lazyObject.coerce, ptr noundef nonnull align 8 dereferenceable(9832) %runtime) #17
  ret void
}